ccopy_reg
_reconstructor
p0
(crenpy.python
RevertableDict
p1
c__builtin__
dict
p2
(dp3
S'layers'
p4
g0
(g1
g2
(dp5
tp6
Rp7
sS'about'
p8
S''
p9
sS'name'
p10
g9
sS'support'
p11
g9
sVtransform
p12
g0
(g1
g2
(dp13
S'mascot_export_zoom'
p14
F1.0
sS'mascot_export_crop'
p15
Nstp16
Rp17
sS'colors'
p18
g0
(g1
g2
(dp19
tp20
Rp21
sS'name_generator_ru'
p22
g0
(g1
g2
(dp23
S'mascot_name'
p24
g9
sS'additional_info_pattern'
p25
g9
stp26
Rp27
sVexport
p28
g0
(g1
g2
(dp29
S'saveload_filename_prefix'
p30
Valice
p31
stp32
Rp33
sS'wakaba'
p34
g9
sS'charsets'
p35
g0
(g1
g2
(dp36
S'current_limits'
p37
g0
(g1
g2
(dp38
S'C'
p39
g0
(g1
g2
(dp40
I65
g0
(g1
g2
(dp41
Vbrows
p42
V4
p43
stp44
Rp45
sI60
g0
(g1
g2
(dp46
Vbrowstype
p47
Vthin
p48
stp49
Rp50
sI45
g0
(g1
g2
(dp51
Veyeshine
p52
Vup
p53
stp54
Rp55
stp56
Rp57
sS'R'
p58
g0
(g1
g2
(dp59
I-1
g0
(g1
g2
(dp60
S'_side'
p61
g58
stp62
Rp63
stp64
Rp65
sS'L'
p66
g0
(g1
g2
(dp67
I-1
g0
(g1
g2
(dp68
g61
g66
stp69
Rp70
stp71
Rp72
stp73
Rp74
sS'current_mascot'
p75
g0
(g1
g2
(dp76
(I65
g39
tp77
g0
(g1
g2
(dp78
S'imagepath'
p79
V/home/hedley/Desktop/iicharacter_alpha-linux/charsets/Billy.M.CC-NA/layers/65.eyebrows@face/04.IF.browstype.thin
p80
sg10
V04.IF.browstype.thin
p81
stp82
Rp83
s(I45
g39
tp84
g0
(g1
g2
(dp85
g79
V/home/hedley/Desktop/iicharacter_alpha-linux/charsets/Billy.M.CC-NA/layers/45.eyeshine@body/Up
p86
sg10
VUp
p87
stp88
Rp89
s(I40
g39
tp90
g0
(g1
g2
(dp91
g79
V/home/hedley/Desktop/iicharacter_alpha-linux/charsets/Billy.M.CC-NA/layers/40.blush@face/-
p92
sg10
V-
p93
stp94
Rp95
s(I50
g39
tp96
g0
(g1
g2
(dp97
g79
V/home/hedley/Desktop/iicharacter_alpha-linux/charsets/Billy.M.CC-NA/layers/50.eyes@face/Open 01.IF.eyeshine.up
p98
sg10
VOpen 01.IF.eyeshine.up
p99
stp100
Rp101
s(I20
g39
tp102
g0
(g1
g2
(dp103
g79
V/home/hedley/Desktop/iicharacter_alpha-linux/charsets/Billy.M.CC-NA/layers/20.back hair@hair/02
p104
sg10
V02
p105
stp106
Rp107
s(I75
g39
tp108
g0
(g1
g2
(dp109
g79
V/home/hedley/Desktop/iicharacter_alpha-linux/charsets/Billy.M.CC-NA/layers/75.glasses@dress/01
p110
sg10
V01
p111
stp112
Rp113
s(I30
g39
tp114
g0
(g1
g2
(dp115
g79
V/home/hedley/Desktop/iicharacter_alpha-linux/charsets/Billy.M.CC-NA/layers/30.dress@dress/02
p116
sg10
V02
p117
stp118
Rp119
s(I85
g39
tp120
g0
(g1
g2
(dp121
g79
V/home/hedley/Desktop/iicharacter_alpha-linux/charsets/Billy.M.CC-NA/layers/85.hair pin@hair/02
p122
sg10
V02
p123
stp124
Rp125
s(I80
g39
tp126
g0
(g1
g2
(dp127
g79
V/home/hedley/Desktop/iicharacter_alpha-linux/charsets/Billy.M.CC-NA/layers/80.front hair@hair/06
p128
sg10
V06
p129
stp130
Rp131
s(I60
g39
tp132
g0
(g1
g2
(dp133
g79
V/home/hedley/Desktop/iicharacter_alpha-linux/charsets/Billy.M.CC-NA/layers/60.eyebrows type@body/Thin
p134
sg10
VThin
p135
stp136
Rp137
s(I70
g39
tp138
g0
(g1
g2
(dp139
g79
V/home/hedley/Desktop/iicharacter_alpha-linux/charsets/Billy.M.CC-NA/layers/70.mouth@face/03.IF.brows.4
p140
sg10
V03.IF.brows.4
p141
stp142
Rp143
s(I29
g39
tp144
g0
(g1
g2
(dp145
g79
V/home/hedley/Desktop/iicharacter_alpha-linux/charsets/Billy.M.CC-NA/layers/29.body/Body
p146
sg10
VBody
p147
stp148
Rp149
s(I25
g39
tp150
g0
(g1
g2
(dp151
g79
V/home/hedley/Desktop/iicharacter_alpha-linux/charsets/Billy.M.CC-NA/layers/25.wings@body/-.X.10
p152
sg10
V-.X.10
p153
stp154
Rp155
s(I0
g39
tp156
g0
(g1
g2
(dp157
g79
V/home/hedley/Desktop/iicharacter_alpha-linux/charsets/Billy.M.CC-NA/layers/00.definitions/-
p158
sg10
V-
p159
stp160
Rp161
stp162
Rp163
sS'current_sides'
p164
g0
(g1
g2
(dp165
I70
I00
sI71
I00
sI41
I00
sI10
I00
sI80
I00
sI81
I00
sI82
I00
sI20
I00
sI24
I00
sI55
I00
sI56
I00
sI90
I00
sI91
I00
sI28
I00
sI29
I00
stp166
Rp167
sS'current_recolor'
p168
g0
(g1
g2
(dp169
Vhair
p170
g0
(g1
g2
(dp171
S'palette'
p172
g0
(crenpy.python
RevertableList
p173
c__builtin__
list
p174
(lp175
g0
(g173
g174
(lp176
(F0.0
F1.0
F0.5
tp177
a(F0.08333333333333333
F1.0
F0.5
tp178
a(F0.16666666666666666
F1.0
F0.5
tp179
a(F0.25
F1.0
F0.5
tp180
a(F0.3333333333333333
F1.0
F0.5
tp181
a(F0.4166666666666667
F1.0
F0.5
tp182
a(F0.5
F1.0
F0.5
tp183
a(F0.5833333333333334
F1.0
F0.5
tp184
a(F0.6666666666666666
F1.0
F0.5
tp185
a(F0.75
F1.0
F0.5
tp186
a(F0.8333333333333334
F1.0
F0.5
tp187
a(F0.9166666666666666
F1.0
F0.5
tp188
ag0
(g173
g174
(lp189
F0.0
aF0.0
aF1.0
atp190
Rp191
a(F0.0
F0.0
F0.5
tp192
aNatp193
Rp194
ag0
(g173
g174
(lp195
(F0.0
F0.7
F0.4
tp196
a(F0.08333333333333333
F0.7
F0.4
tp197
a(F0.16666666666666666
F0.7
F0.4
tp198
a(F0.25
F0.7
F0.4
tp199
a(F0.3333333333333333
F0.7
F0.4
tp200
a(F0.4166666666666667
F0.7
F0.4
tp201
a(F0.5
F0.7
F0.4
tp202
a(F0.5833333333333334
F0.7
F0.4
tp203
a(F0.6666666666666666
F0.7
F0.4
tp204
a(F0.75
F0.7
F0.4
tp205
a(F0.8333333333333334
F0.7
F0.4
tp206
a(F0.9166666666666666
F0.7
F0.4
tp207
ag0
(g173
g174
(lp208
F0.0
aF0.0
aF0.0
atp209
Rp210
a(F0.0
F0.0
F0.4
tp211
a(F0.0
F0.0
F0.6
tp212
atp213
Rp214
atp215
Rp216
sS'br'
p217
F0.5
sS'delta'
p218
I0
sS'h'
p219
F0.0
sS'type'
p220
S'T'
p221
sS's'
p222
F0.0
sS'custom'
p223
I00
stp224
Rp225
sVdress
p226
g0
(g1
g2
(dp227
g172
g0
(g173
g174
(lp228
g0
(g173
g174
(lp229
(F0.0
F1.0
F0.5
tp230
a(F0.08333333333333333
F1.0
F0.5
tp231
a(F0.16666666666666666
F1.0
F0.5
tp232
a(F0.25
F1.0
F0.5
tp233
a(F0.3333333333333333
F1.0
F0.5
tp234
a(F0.4166666666666667
F1.0
F0.5
tp235
a(F0.5
F1.0
F0.5
tp236
a(F0.5833333333333334
F1.0
F0.5
tp237
a(F0.6666666666666666
F1.0
F0.5
tp238
a(F0.75
F1.0
F0.5
tp239
a(F0.8333333333333334
F1.0
F0.5
tp240
a(F0.9166666666666666
F1.0
F0.5
tp241
ag0
(g173
g174
(lp242
F0.0
aF0.0
aF1.0
atp243
Rp244
ag192
aNatp245
Rp246
ag0
(g173
g174
(lp247
(F0.0
F0.7
F0.4
tp248
a(F0.08333333333333333
F0.7
F0.4
tp249
a(F0.16666666666666666
F0.7
F0.4
tp250
a(F0.25
F0.7
F0.4
tp251
a(F0.3333333333333333
F0.7
F0.4
tp252
a(F0.4166666666666667
F0.7
F0.4
tp253
a(F0.5
F0.7
F0.4
tp254
a(F0.5833333333333334
F0.7
F0.4
tp255
a(F0.6666666666666666
F0.7
F0.4
tp256
a(F0.75
F0.7
F0.4
tp257
a(F0.8333333333333334
F0.7
F0.4
tp258
a(F0.9166666666666666
F0.7
F0.4
tp259
ag0
(g173
g174
(lp260
F0.0
aF0.0
aF0.0
atp261
Rp262
ag211
ag212
atp263
Rp264
atp265
Rp266
sg217
F0.6
sg218
I0
sg219
F0.0
sg220
g221
sg222
F0.0
sg223
I00
stp267
Rp268
sVeyes
p269
g0
(g1
g2
(dp270
g172
g0
(g173
g174
(lp271
g0
(g173
g174
(lp272
(F0.0
F1.0
F0.5
tp273
a(F0.08333333333333333
F1.0
F0.5
tp274
a(F0.16666666666666666
F1.0
F0.5
tp275
a(F0.25
F1.0
F0.5
tp276
a(F0.3333333333333333
F1.0
F0.5
tp277
a(F0.4166666666666667
F1.0
F0.5
tp278
a(F0.5
F1.0
F0.5
tp279
a(F0.5833333333333334
F1.0
F0.5
tp280
a(F0.6666666666666666
F1.0
F0.5
tp281
a(F0.75
F1.0
F0.5
tp282
a(F0.8333333333333334
F1.0
F0.5
tp283
a(F0.9166666666666666
F1.0
F0.5
tp284
ag0
(g173
g174
(lp285
F0.0
aF0.0
aF1.0
atp286
Rp287
ag192
aNatp288
Rp289
ag0
(g173
g174
(lp290
(F0.0
F0.7
F0.4
tp291
a(F0.08333333333333333
F0.7
F0.4
tp292
a(F0.16666666666666666
F0.7
F0.4
tp293
a(F0.25
F0.7
F0.4
tp294
a(F0.3333333333333333
F0.7
F0.4
tp295
a(F0.4166666666666667
F0.7
F0.4
tp296
a(F0.5
F0.7
F0.4
tp297
a(F0.5833333333333334
F0.7
F0.4
tp298
a(F0.6666666666666666
F0.7
F0.4
tp299
a(F0.75
F0.7
F0.4
tp300
a(F0.8333333333333334
F0.7
F0.4
tp301
a(F0.9166666666666666
F0.7
F0.4
tp302
ag0
(g173
g174
(lp303
F0.0
aF0.0
aF0.0
atp304
Rp305
ag211
ag212
atp306
Rp307
atp308
Rp309
sg217
F0.5
sg218
I0
sg219
F0.9166666666666666
sg220
g221
sg222
F1.0
sg223
I00
stp310
Rp311
sVhairdress
p312
g0
(g1
g2
(dp313
g172
g0
(g173
g174
(lp314
g0
(g173
g174
(lp315
(F0.0
F1.0
F0.5
tp316
a(F0.08333333333333333
F1.0
F0.5
tp317
a(F0.16666666666666666
F1.0
F0.5
tp318
a(F0.25
F1.0
F0.5
tp319
a(F0.3333333333333333
F1.0
F0.5
tp320
a(F0.4166666666666667
F1.0
F0.5
tp321
a(F0.5
F1.0
F0.5
tp322
a(F0.5833333333333334
F1.0
F0.5
tp323
a(F0.6666666666666666
F1.0
F0.5
tp324
a(F0.75
F1.0
F0.5
tp325
a(F0.8333333333333334
F1.0
F0.5
tp326
a(F0.9166666666666666
F1.0
F0.5
tp327
ag0
(g173
g174
(lp328
F0.0
aF0.0
aF1.0
atp329
Rp330
ag192
aNatp331
Rp332
ag0
(g173
g174
(lp333
(F0.0
F0.7
F0.4
tp334
a(F0.08333333333333333
F0.7
F0.4
tp335
a(F0.16666666666666666
F0.7
F0.4
tp336
a(F0.25
F0.7
F0.4
tp337
a(F0.3333333333333333
F0.7
F0.4
tp338
a(F0.4166666666666667
F0.7
F0.4
tp339
a(F0.5
F0.7
F0.4
tp340
a(F0.5833333333333334
F0.7
F0.4
tp341
a(F0.6666666666666666
F0.7
F0.4
tp342
a(F0.75
F0.7
F0.4
tp343
a(F0.8333333333333334
F0.7
F0.4
tp344
a(F0.9166666666666666
F0.7
F0.4
tp345
ag0
(g173
g174
(lp346
F0.0
aF0.0
aF0.0
atp347
Rp348
ag211
ag212
atp349
Rp350
atp351
Rp352
sg217
F0.4
sg218
I0
sg219
F0.75
sg220
g221
sg222
F0.7
sg223
I00
stp353
Rp354
sVskin
p355
g0
(g1
g2
(dp356
g172
g0
(g173
g174
(lp357
g0
(g173
g174
(lp358
(F1.0
F1.0
F0.53
tp359
a(F0.9861111111111112
F1.0
F0.53
tp360
a(F0.9722222222222222
F1.0
F0.53
tp361
a(F0.9583333333333334
F1.0
F0.53
tp362
a(F0.9444444444444444
F1.0
F0.53
tp363
a(F0.9305555555555556
F1.0
F0.53
tp364
a(F0.9166666666666666
F1.0
F0.53
tp365
a(F0.9027777777777778
F1.0
F0.53
tp366
a(F0.8888888888888888
F1.0
F0.53
tp367
a(F0.875
F1.0
F0.53
tp368
a(F0.8611111111111112
F1.0
F0.53
tp369
a(F0.8472222222222222
F1.0
F0.53
tp370
ag0
(g173
g174
(lp371
F0.0
aF0.0
aF1.0
atp372
Rp373
ag0
(g173
g174
(lp374
F0.0
aF0.0
aF0.5
atp375
Rp376
aNatp377
Rp378
ag0
(g173
g174
(lp379
(F1.0
F1.0
F0.48
tp380
a(F0.9861111111111112
F1.0
F0.48
tp381
a(F0.9722222222222222
F1.0
F0.48
tp382
a(F0.9583333333333334
F1.0
F0.48
tp383
a(F0.9444444444444444
F1.0
F0.48
tp384
a(F0.9305555555555556
F1.0
F0.48
tp385
a(F0.9166666666666666
F1.0
F0.48
tp386
a(F0.9027777777777778
F1.0
F0.48
tp387
a(F0.8888888888888888
F1.0
F0.48
tp388
a(F0.875
F1.0
F0.48
tp389
a(F0.8611111111111112
F1.0
F0.48
tp390
a(F0.8472222222222222
F1.0
F0.48
tp391
ag0
(g173
g174
(lp392
F0.0
aF0.0
aF0.0
atp393
Rp394
ag0
(g173
g174
(lp395
F0.0
aF0.0
aF0.4
atp396
Rp397
ag0
(g173
g174
(lp398
F0.0
aF0.0
aF0.6
atp399
Rp400
atp401
Rp402
atp403
Rp404
sg217
F0.53
sg218
F0.51
sg219
F0.9444444444444444
sg220
g221
sg222
F1.0
sg223
I00
stp405
Rp406
stp407
Rp408
sS'charset'
p409
VBilly.M.CC-NA
p410
sS'current_used_colors'
p411
g0
(g1
g2
(dp412
Vhair
p413
g221
sVhairdress
p414
g221
sVeyes
p415
g221
sVdress
p416
g221
sVskin
p417
g221
stp418
Rp419
stp420
Rp421
stp422
Rp423
.