ccopy_reg
_reconstructor
p0
(crenpy.python
RevertableDict
p1
c__builtin__
dict
p2
(dp3
S'layers'
p4
g0
(g1
g2
(dp5
tp6
Rp7
sS'about'
p8
S''
p9
sS'name'
p10
g9
sS'support'
p11
g9
sVtransform
p12
g0
(g1
g2
(dp13
S'mascot_export_zoom'
p14
F1.0
sS'mascot_export_crop'
p15
Nstp16
Rp17
sS'colors'
p18
g0
(g1
g2
(dp19
tp20
Rp21
sS'name_generator_ru'
p22
g0
(g1
g2
(dp23
S'mascot_name'
p24
g9
sS'additional_info_pattern'
p25
g9
stp26
Rp27
sVexport
p28
g0
(g1
g2
(dp29
S'saveload_filename_prefix'
p30
Vbont
p31
stp32
Rp33
sS'wakaba'
p34
g9
sS'charsets'
p35
g0
(g1
g2
(dp36
S'current_limits'
p37
g0
(g1
g2
(dp38
S'C'
p39
g0
(g1
g2
(dp40
I55
g0
(g1
g2
(dp41
Veyes
p42
V2
p43
stp44
Rp45
stp46
Rp47
sS'R'
p48
g0
(g1
g2
(dp49
I-1
g0
(g1
g2
(dp50
S'_side'
p51
g48
stp52
Rp53
stp54
Rp55
sS'L'
p56
g0
(g1
g2
(dp57
I-1
g0
(g1
g2
(dp58
g51
g56
stp59
Rp60
stp61
Rp62
stp63
Rp64
sS'current_mascot'
p65
g0
(g1
g2
(dp66
(I40
g39
tp67
g0
(g1
g2
(dp68
S'imagepath'
p69
V/home/hedley/Desktop/iicharacter_alpha-linux/charsets/Shoujo boy.M.CC-BY-SA-30/layers/40.dress@dress/longsleevejean
p70
sg10
Vlongsleevejean
p71
stp72
Rp73
s(I50
g39
tp74
g0
(g1
g2
(dp75
g69
V/home/hedley/Desktop/iicharacter_alpha-linux/charsets/Shoujo boy.M.CC-BY-SA-30/layers/50.blush@face/-
p76
sg10
V-
p77
stp78
Rp79
s(I20
g39
tp80
g0
(g1
g2
(dp81
g69
V/home/hedley/Desktop/iicharacter_alpha-linux/charsets/Shoujo boy.M.CC-BY-SA-30/layers/20.back hair@hair/messy01
p82
sg10
Vmessy01
p83
stp84
Rp85
s(I30
g39
tp86
g0
(g1
g2
(dp87
g69
V/home/hedley/Desktop/iicharacter_alpha-linux/charsets/Shoujo boy.M.CC-BY-SA-30/layers/30.body/body
p88
sg10
Vbody
p89
stp90
Rp91
s(I80
g39
tp92
g0
(g1
g2
(dp93
g69
V/home/hedley/Desktop/iicharacter_alpha-linux/charsets/Shoujo boy.M.CC-BY-SA-30/layers/80.front hair@hair/sideswept
p94
sg10
Vsideswept
p95
stp96
Rp97
s(I55
g39
tp98
g0
(g1
g2
(dp99
g69
V/home/hedley/Desktop/iicharacter_alpha-linux/charsets/Shoujo boy.M.CC-BY-SA-30/layers/55.eyes type@face/set 2
p100
sg10
Vset 2
p101
stp102
Rp103
s(I60
g39
tp104
g0
(g1
g2
(dp105
g69
V/home/hedley/Desktop/iicharacter_alpha-linux/charsets/Shoujo boy.M.CC-BY-SA-30/layers/60.eyes@face/down.IF.eyes.2
p106
sg10
Vdown.IF.eyes.2
p107
stp108
Rp109
s(I70
g39
tp110
g0
(g1
g2
(dp111
g69
V/home/hedley/Desktop/iicharacter_alpha-linux/charsets/Shoujo boy.M.CC-BY-SA-30/layers/70.face@face/surprise
p112
sg10
Vsurprise
p113
stp114
Rp115
s(I0
g39
tp116
g0
(g1
g2
(dp117
g69
V/home/hedley/Desktop/iicharacter_alpha-linux/charsets/Shoujo boy.M.CC-BY-SA-30/layers/00.definitions/-
p118
sg10
V-
p119
stp120
Rp121
stp122
Rp123
sS'current_sides'
p124
g0
(g1
g2
(dp125
I56
I00
sI70
I00
sI71
I00
sI41
I00
sI10
I00
sI80
I00
sI81
I00
sI82
I00
sI20
I00
sI55
I00
sI24
I00
sI90
I00
sI91
I00
sI28
I00
sI29
I00
stp126
Rp127
sS'current_recolor'
p128
g0
(g1
g2
(dp129
Vhair
p130
g0
(g1
g2
(dp131
S'palette'
p132
g0
(crenpy.python
RevertableList
p133
c__builtin__
list
p134
(lp135
g0
(g133
g134
(lp136
(F0.0
F1.0
F0.5
tp137
a(F0.08333333333333333
F1.0
F0.5
tp138
a(F0.16666666666666666
F1.0
F0.5
tp139
a(F0.25
F1.0
F0.5
tp140
a(F0.3333333333333333
F1.0
F0.5
tp141
a(F0.4166666666666667
F1.0
F0.5
tp142
a(F0.5
F1.0
F0.5
tp143
a(F0.5833333333333334
F1.0
F0.5
tp144
a(F0.6666666666666666
F1.0
F0.5
tp145
a(F0.75
F1.0
F0.5
tp146
a(F0.8333333333333334
F1.0
F0.5
tp147
a(F0.9166666666666666
F1.0
F0.5
tp148
ag0
(g133
g134
(lp149
F0.0
aF0.0
aF1.0
atp150
Rp151
a(F0.0
F0.0
F0.5
tp152
aNatp153
Rp154
ag0
(g133
g134
(lp155
(F0.0
F0.7
F0.4
tp156
a(F0.08333333333333333
F0.7
F0.4
tp157
a(F0.16666666666666666
F0.7
F0.4
tp158
a(F0.25
F0.7
F0.4
tp159
a(F0.3333333333333333
F0.7
F0.4
tp160
a(F0.4166666666666667
F0.7
F0.4
tp161
a(F0.5
F0.7
F0.4
tp162
a(F0.5833333333333334
F0.7
F0.4
tp163
a(F0.6666666666666666
F0.7
F0.4
tp164
a(F0.75
F0.7
F0.4
tp165
a(F0.8333333333333334
F0.7
F0.4
tp166
a(F0.9166666666666666
F0.7
F0.4
tp167
ag0
(g133
g134
(lp168
F0.0
aF0.0
aF0.0
atp169
Rp170
a(F0.0
F0.0
F0.4
tp171
a(F0.0
F0.0
F0.6
tp172
atp173
Rp174
atp175
Rp176
sS'br'
p177
F0.5
sS'delta'
p178
I0
sS'h'
p179
F0.3333333333333333
sS'type'
p180
S'T'
p181
sS's'
p182
F1.0
sS'custom'
p183
I00
stp184
Rp185
sVeyes
p186
g0
(g1
g2
(dp187
g132
g0
(g133
g134
(lp188
g0
(g133
g134
(lp189
(F0.0
F1.0
F0.5
tp190
a(F0.08333333333333333
F1.0
F0.5
tp191
a(F0.16666666666666666
F1.0
F0.5
tp192
a(F0.25
F1.0
F0.5
tp193
a(F0.3333333333333333
F1.0
F0.5
tp194
a(F0.4166666666666667
F1.0
F0.5
tp195
a(F0.5
F1.0
F0.5
tp196
a(F0.5833333333333334
F1.0
F0.5
tp197
a(F0.6666666666666666
F1.0
F0.5
tp198
a(F0.75
F1.0
F0.5
tp199
a(F0.8333333333333334
F1.0
F0.5
tp200
a(F0.9166666666666666
F1.0
F0.5
tp201
ag0
(g133
g134
(lp202
F0.0
aF0.0
aF1.0
atp203
Rp204
ag152
aNatp205
Rp206
ag0
(g133
g134
(lp207
(F0.0
F0.7
F0.4
tp208
a(F0.08333333333333333
F0.7
F0.4
tp209
a(F0.16666666666666666
F0.7
F0.4
tp210
a(F0.25
F0.7
F0.4
tp211
a(F0.3333333333333333
F0.7
F0.4
tp212
a(F0.4166666666666667
F0.7
F0.4
tp213
a(F0.5
F0.7
F0.4
tp214
a(F0.5833333333333334
F0.7
F0.4
tp215
a(F0.6666666666666666
F0.7
F0.4
tp216
a(F0.75
F0.7
F0.4
tp217
a(F0.8333333333333334
F0.7
F0.4
tp218
a(F0.9166666666666666
F0.7
F0.4
tp219
ag0
(g133
g134
(lp220
F0.0
aF0.0
aF0.0
atp221
Rp222
ag171
ag172
atp223
Rp224
atp225
Rp226
sg177
F0.5
sg178
I0
sg179
F0.16666666666666666
sg180
g181
sg182
F1.0
sg183
I00
stp227
Rp228
sVdress
p229
g0
(g1
g2
(dp230
g132
g0
(g133
g134
(lp231
g0
(g133
g134
(lp232
(F0.0
F1.0
F0.5
tp233
a(F0.08333333333333333
F1.0
F0.5
tp234
a(F0.16666666666666666
F1.0
F0.5
tp235
a(F0.25
F1.0
F0.5
tp236
a(F0.3333333333333333
F1.0
F0.5
tp237
a(F0.4166666666666667
F1.0
F0.5
tp238
a(F0.5
F1.0
F0.5
tp239
a(F0.5833333333333334
F1.0
F0.5
tp240
a(F0.6666666666666666
F1.0
F0.5
tp241
a(F0.75
F1.0
F0.5
tp242
a(F0.8333333333333334
F1.0
F0.5
tp243
a(F0.9166666666666666
F1.0
F0.5
tp244
ag0
(g133
g134
(lp245
F0.0
aF0.0
aF1.0
atp246
Rp247
ag152
aNatp248
Rp249
ag0
(g133
g134
(lp250
(F0.0
F0.7
F0.4
tp251
a(F0.08333333333333333
F0.7
F0.4
tp252
a(F0.16666666666666666
F0.7
F0.4
tp253
a(F0.25
F0.7
F0.4
tp254
a(F0.3333333333333333
F0.7
F0.4
tp255
a(F0.4166666666666667
F0.7
F0.4
tp256
a(F0.5
F0.7
F0.4
tp257
a(F0.5833333333333334
F0.7
F0.4
tp258
a(F0.6666666666666666
F0.7
F0.4
tp259
a(F0.75
F0.7
F0.4
tp260
a(F0.8333333333333334
F0.7
F0.4
tp261
a(F0.9166666666666666
F0.7
F0.4
tp262
ag0
(g133
g134
(lp263
F0.0
aF0.0
aF0.0
atp264
Rp265
ag171
ag172
atp266
Rp267
atp268
Rp269
sg177
F0.6
sg178
I0
sg179
F0.0
sg180
g181
sg182
F0.0
sg183
I00
stp270
Rp271
sVskin
p272
g0
(g1
g2
(dp273
g132
g0
(g133
g134
(lp274
g0
(g133
g134
(lp275
(F1.0
F1.0
F0.53
tp276
a(F0.9861111111111112
F1.0
F0.53
tp277
a(F0.9722222222222222
F1.0
F0.53
tp278
a(F0.9583333333333334
F1.0
F0.53
tp279
a(F0.9444444444444444
F1.0
F0.53
tp280
a(F0.9305555555555556
F1.0
F0.53
tp281
a(F0.9166666666666666
F1.0
F0.53
tp282
a(F0.9027777777777778
F1.0
F0.53
tp283
a(F0.8888888888888888
F1.0
F0.53
tp284
a(F0.875
F1.0
F0.53
tp285
a(F0.8611111111111112
F1.0
F0.53
tp286
a(F0.8472222222222222
F1.0
F0.53
tp287
ag0
(g133
g134
(lp288
F0.0
aF0.0
aF1.0
atp289
Rp290
ag0
(g133
g134
(lp291
F0.0
aF0.0
aF0.5
atp292
Rp293
aNatp294
Rp295
ag0
(g133
g134
(lp296
(F1.0
F1.0
F0.48
tp297
a(F0.9861111111111112
F1.0
F0.48
tp298
a(F0.9722222222222222
F1.0
F0.48
tp299
a(F0.9583333333333334
F1.0
F0.48
tp300
a(F0.9444444444444444
F1.0
F0.48
tp301
a(F0.9305555555555556
F1.0
F0.48
tp302
a(F0.9166666666666666
F1.0
F0.48
tp303
a(F0.9027777777777778
F1.0
F0.48
tp304
a(F0.8888888888888888
F1.0
F0.48
tp305
a(F0.875
F1.0
F0.48
tp306
a(F0.8611111111111112
F1.0
F0.48
tp307
a(F0.8472222222222222
F1.0
F0.48
tp308
ag0
(g133
g134
(lp309
F0.0
aF0.0
aF0.0
atp310
Rp311
ag0
(g133
g134
(lp312
F0.0
aF0.0
aF0.4
atp313
Rp314
ag0
(g133
g134
(lp315
F0.0
aF0.0
aF0.6
atp316
Rp317
atp318
Rp319
atp320
Rp321
sg177
F0.48
sg178
F0.51
sg179
F0.8888888888888888
sg180
g181
sg182
F1.0
sg183
I00
stp322
Rp323
stp324
Rp325
sS'charset'
p326
VShoujo boy.M.CC-BY-SA-30
p327
sS'current_used_colors'
p328
g0
(g1
g2
(dp329
Vhair
p330
g181
sVeyes
p331
g181
sVdress
p332
g181
sVskin
p333
g181
stp334
Rp335
stp336
Rp337
stp338
Rp339
.